target datalayout = "e-m:e-p270:32:32-p271:32:32-p272:64:64-i64:64-i128:128-f80:128-n8:16:32:64-S128"
target triple = "x86_64-pc-linux-gnu"

%struct._archiveHandle = type { %struct.Archive, i32, ptr, ptr, i64, i64, i32, %struct.sqlparseInfo, i64, i32, ptr, i64, i64, i64, ptr, ptr, ptr, ptr, ptr, ptr, ptr, ptr, ptr, ptr, ptr, ptr, ptr, ptr, ptr, ptr, ptr, ptr, ptr, ptr, ptr, ptr, ptr, ptr, ptr, ptr, ptr, ptr, ptr, ptr, i32, i32, i8, i32, i8, i32, ptr, ptr, ptr, ptr, i32, i32, ptr, ptr, ptr, %struct.pg_compress_specification, i8, i32, i32, ptr, ptr, ptr, ptr, ptr, i32, ptr, i64, i64, i32, i32, i32, i32, ptr, ptr }
%struct.Archive = type { ptr, ptr, i32, ptr, i32, i8, i32, i32, i32, ptr, i32, i8, ptr, ptr, i8, i32, ptr }
%struct.sqlparseInfo = type { i32, i8, ptr }
%struct.pg_compress_specification = type { i32, i32, i32, i32, i8, ptr }
%struct.lclContext = type { i32, i64, ptr, ptr, i64, i64, ptr, i32, ptr }
%struct.TAR_MEMBER = type { ptr, ptr, ptr, ptr, i8, i64, i64, ptr }

@.str.22 = private unnamed_addr constant [44 x i8] c"could not read from input file: end of file\00", align 1
@.str.23 = private unnamed_addr constant [35 x i8] c"could not read from input file: %m\00", align 1

; Function Attrs: nounwind uwtable
define internal i64 @_tarReadRaw(ptr noundef %0, ptr noundef %1, i64 noundef %2, ptr noundef %3, ptr noundef %4) #0 {
  %6 = alloca ptr, align 8
  %7 = alloca ptr, align 8
  %8 = alloca i64, align 8
  %9 = alloca ptr, align 8
  %10 = alloca ptr, align 8
  %11 = alloca ptr, align 8
  %12 = alloca i64, align 8
  %13 = alloca i64, align 8
  %14 = alloca i64, align 8
  store ptr %0, ptr %6, align 8
  store ptr %1, ptr %7, align 8
  store i64 %2, ptr %8, align 8
  store ptr %3, ptr %9, align 8
  store ptr %4, ptr %10, align 8
  call void @llvm.lifetime.start.p0(i64 8, ptr %11) #12
  %15 = load ptr, ptr %6, align 8
  %16 = getelementptr inbounds nuw %struct._archiveHandle, ptr %15, i32 0, i32 63
  %17 = load ptr, ptr %16, align 8
  store ptr %17, ptr %11, align 8
  call void @llvm.lifetime.start.p0(i64 8, ptr %12) #12
  call void @llvm.lifetime.start.p0(i64 8, ptr %13) #12
  store i64 0, ptr %13, align 8
  call void @llvm.lifetime.start.p0(i64 8, ptr %14) #12
  store i64 0, ptr %14, align 8
  %18 = load ptr, ptr %6, align 8
  %19 = getelementptr inbounds nuw %struct._archiveHandle, ptr %18, i32 0, i32 12
  %20 = load i64, ptr %19, align 8
  %21 = load ptr, ptr %6, align 8
  %22 = getelementptr inbounds nuw %struct._archiveHandle, ptr %21, i32 0, i32 13
  %23 = load i64, ptr %22, align 8
  %24 = sub i64 %20, %23
  store i64 %24, ptr %12, align 8
  %25 = load i64, ptr %12, align 8
  %26 = icmp ugt i64 %25, 0
  br i1 %26, label %27, label %53

27:                                               ; preds = %5
  %28 = load i64, ptr %12, align 8
  %29 = load i64, ptr %8, align 8
  %30 = icmp uge i64 %28, %29
  br i1 %30, label %31, label %33

31:                                               ; preds = %27
  %32 = load i64, ptr %8, align 8
  store i64 %32, ptr %13, align 8
  br label %35

33:                                               ; preds = %27
  %34 = load i64, ptr %12, align 8
  store i64 %34, ptr %13, align 8
  br label %35

35:                                               ; preds = %33, %31
  %36 = load ptr, ptr %7, align 8
  %37 = load ptr, ptr %6, align 8
  %38 = getelementptr inbounds nuw %struct._archiveHandle, ptr %37, i32 0, i32 10
  %39 = load ptr, ptr %38, align 8
  %40 = load ptr, ptr %6, align 8
  %41 = getelementptr inbounds nuw %struct._archiveHandle, ptr %40, i32 0, i32 13
  %42 = load i64, ptr %41, align 8
  %43 = getelementptr inbounds nuw i8, ptr %39, i64 %42
  %44 = load i64, ptr %13, align 8
  call void @llvm.memcpy.p0.p0.i64(ptr align 1 %36, ptr align 1 %43, i64 %44, i1 false)
  %45 = load i64, ptr %13, align 8
  %46 = load ptr, ptr %6, align 8
  %47 = getelementptr inbounds nuw %struct._archiveHandle, ptr %46, i32 0, i32 13
  %48 = load i64, ptr %47, align 8
  %49 = add i64 %48, %45
  store i64 %49, ptr %47, align 8
  %50 = load i64, ptr %13, align 8
  %51 = load i64, ptr %8, align 8
  %52 = sub i64 %51, %50
  store i64 %52, ptr %8, align 8
  br label %53

53:                                               ; preds = %35, %5
  %54 = load i64, ptr %8, align 8
  %55 = icmp ugt i64 %54, 0
  br i1 %55, label %56, label %132

56:                                               ; preds = %53
  %57 = load ptr, ptr %10, align 8
  %58 = icmp ne ptr %57, null
  br i1 %58, label %59, label %90

59:                                               ; preds = %56
  %60 = load ptr, ptr %7, align 8
  %61 = load i64, ptr %13, align 8
  %62 = getelementptr inbounds nuw i8, ptr %60, i64 %61
  %63 = load i64, ptr %8, align 8
  %64 = load ptr, ptr %10, align 8
  %65 = call i64 @fread(ptr noundef %62, i64 noundef 1, i64 noundef %63, ptr noundef %64)
  store i64 %65, ptr %14, align 8
  %66 = load i64, ptr %14, align 8
  %67 = load i64, ptr %8, align 8
  %68 = icmp ne i64 %66, %67
  br i1 %68, label %69, label %89

69:                                               ; preds = %59
  %70 = load ptr, ptr %10, align 8
  %71 = call i32 @feof(ptr noundef %70) #12
  %72 = icmp ne i32 %71, 0
  br i1 %72, label %89, label %73

73:                                               ; preds = %69
  br label %74

74:                                               ; preds = %73
  %75 = load ptr, ptr %10, align 8
  %76 = call i32 @feof(ptr noundef %75) #12
  %77 = icmp ne i32 %76, 0
  br i1 %77, label %78, label %82

78:                                               ; preds = %74
  br label %79

79:                                               ; preds = %78
  call void (i32, i32, ptr, ...) @pg_log_generic(i32 noundef 4, i32 noundef 0, ptr noundef @.str.22)
  call void @exit_nicely(i32 noundef 1) #14
  unreachable

80:                                               ; No predecessors!
  br label %81

81:                                               ; preds = %80
  br label %86

82:                                               ; preds = %74
  br label %83

83:                                               ; preds = %82
  call void (i32, i32, ptr, ...) @pg_log_generic(i32 noundef 4, i32 noundef 0, ptr noundef @.str.23)
  call void @exit_nicely(i32 noundef 1) #14
  unreachable

84:                                               ; No predecessors!
  br label %85

85:                                               ; preds = %84
  br label %86

86:                                               ; preds = %85, %81
  br label %87

87:                                               ; preds = %86
  br label %88

88:                                               ; preds = %87
  br label %89

89:                                               ; preds = %88, %69, %59
  br label %131

90:                                               ; preds = %56
  %91 = load ptr, ptr %9, align 8
  %92 = icmp ne ptr %91, null
  br i1 %92, label %93, label %130

93:                                               ; preds = %90
  %94 = load ptr, ptr %7, align 8
  %95 = load i64, ptr %13, align 8
  %96 = getelementptr inbounds nuw i8, ptr %94, i64 %95
  %97 = load i64, ptr %8, align 8
  %98 = load ptr, ptr %9, align 8
  %99 = getelementptr inbounds nuw %struct.TAR_MEMBER, ptr %98, i32 0, i32 0
  %100 = load ptr, ptr %99, align 8
  %101 = call i64 @fread(ptr noundef %96, i64 noundef 1, i64 noundef %97, ptr noundef %100)
  store i64 %101, ptr %14, align 8
  %102 = load i64, ptr %14, align 8
  %103 = load i64, ptr %8, align 8
  %104 = icmp ne i64 %102, %103
  br i1 %104, label %105, label %129

105:                                              ; preds = %93
  %106 = load ptr, ptr %9, align 8
  %107 = getelementptr inbounds nuw %struct.TAR_MEMBER, ptr %106, i32 0, i32 0
  %108 = load ptr, ptr %107, align 8
  %109 = call i32 @feof(ptr noundef %108) #12
  %110 = icmp ne i32 %109, 0
  br i1 %110, label %129, label %111

111:                                              ; preds = %105
  br label %112

112:                                              ; preds = %111
  %113 = load ptr, ptr %9, align 8
  %114 = getelementptr inbounds nuw %struct.TAR_MEMBER, ptr %113, i32 0, i32 0
  %115 = load ptr, ptr %114, align 8
  %116 = call i32 @feof(ptr noundef %115) #12
  %117 = icmp ne i32 %116, 0
  br i1 %117, label %118, label %122

118:                                              ; preds = %112
  br label %119

119:                                              ; preds = %118
  call void (i32, i32, ptr, ...) @pg_log_generic(i32 noundef 4, i32 noundef 0, ptr noundef @.str.22)
  call void @exit_nicely(i32 noundef 1) #14
  unreachable

120:                                              ; No predecessors!
  br label %121

121:                                              ; preds = %120
  br label %126

122:                                              ; preds = %112
  br label %123

123:                                              ; preds = %122
  call void (i32, i32, ptr, ...) @pg_log_generic(i32 noundef 4, i32 noundef 0, ptr noundef @.str.23)
  call void @exit_nicely(i32 noundef 1) #14
  unreachable

124:                                              ; No predecessors!
  br label %125

125:                                              ; preds = %124
  br label %126

126:                                              ; preds = %125, %121
  br label %127

127:                                              ; preds = %126
  br label %128

128:                                              ; preds = %127
  br label %129

129:                                              ; preds = %128, %105, %93
  br label %130

130:                                              ; preds = %129, %90
  br label %131

131:                                              ; preds = %130, %89
  br label %132

132:                                              ; preds = %131, %53
  %133 = load i64, ptr %14, align 8
  %134 = load i64, ptr %13, align 8
  %135 = add i64 %133, %134
  %136 = load ptr, ptr %11, align 8
  %137 = getelementptr inbounds nuw %struct.lclContext, ptr %136, i32 0, i32 4
  %138 = load i64, ptr %137, align 8
  %139 = add i64 %138, %135
  store i64 %139, ptr %137, align 8
  %140 = load i64, ptr %14, align 8
  %141 = load i64, ptr %13, align 8
  %142 = add i64 %140, %141
  call void @llvm.lifetime.end.p0(i64 8, ptr %14) #12
  call void @llvm.lifetime.end.p0(i64 8, ptr %13) #12
  call void @llvm.lifetime.end.p0(i64 8, ptr %12) #12
  call void @llvm.lifetime.end.p0(i64 8, ptr %11) #12
  ret i64 %142
}