; Function Attrs: nounwind uwtable
define internal fastcc i64 @_tarReadRaw(ptr noundef captures(none) %0, ptr noundef captures(none) %1, i64 noundef range(i64 1, 0) %2, ptr noundef readonly captures(address_is_null) %3, ptr noundef captures(address_is_null) %4) unnamed_addr #0 {
  %6 = getelementptr inbounds nuw i8, ptr %0, i64 592
  %7 = load ptr, ptr %6, align 8
  %8 = getelementptr inbounds nuw i8, ptr %0, i64 200
  %9 = load i64, ptr %8, align 8
  %10 = getelementptr inbounds nuw i8, ptr %0, i64 208
  %11 = load i64, ptr %10, align 8
  %.not = icmp eq i64 %9, %11
  br i1 %.not, label %.thread, label %12

12:                                               ; preds = %5
  %13 = sub i64 %9, %11
  %. = tail call i64 @llvm.umin.i64(i64 %13, i64 %2)
  %14 = getelementptr inbounds nuw i8, ptr %0, i64 184
  %15 = load ptr, ptr %14, align 8
  %16 = getelementptr inbounds nuw i8, ptr %15, i64 %11
  tail call void @llvm.memcpy.p0.p0.i64(ptr align 1 %1, ptr align 1 %16, i64 %., i1 false)
  %17 = load i64, ptr %10, align 8
  %18 = add i64 %17, %.
  store i64 %18, ptr %10, align 8
  %19 = sub i64 %2, %.
  %.not50 = icmp eq i64 %19, 0
  br i1 %.not50, label %42, label %.thread

.thread:                                          ; preds = %5, %12
  %.03963 = phi i64 [ %., %12 ], [ 0, %5 ]
  %.04062 = phi i64 [ %19, %12 ], [ %2, %5 ]
  %.not51 = icmp eq ptr %4, null
  br i1 %.not51, label %29, label %20

20:                                               ; preds = %.thread
  %21 = getelementptr inbounds nuw i8, ptr %1, i64 %.03963
  %22 = tail call i64 @fread(ptr noundef %21, i64 noundef 1, i64 noundef %.04062, ptr noundef nonnull %4)
  %.not56 = icmp eq i64 %22, %.04062
  br i1 %.not56, label %42, label %23

23:                                               ; preds = %20
  %24 = tail call i32 @feof(ptr noundef nonnull %4) #17
  %.not57 = icmp eq i32 %24, 0
  br i1 %.not57, label %25, label %42

25:                                               ; preds = %23
  %26 = tail call i32 @feof(ptr noundef nonnull %4) #17
  %.not58 = icmp eq i32 %26, 0
  br i1 %.not58, label %28, label %27

27:                                               ; preds = %25
  tail call void (i32, i32, ptr, ...) @pg_log_generic(i32 noundef 4, i32 noundef 0, ptr noundef nonnull @.str.22) #17
  tail call void @exit_nicely(i32 noundef 1) #18
  unreachable

28:                                               ; preds = %25
  tail call void (i32, i32, ptr, ...) @pg_log_generic(i32 noundef 4, i32 noundef 0, ptr noundef nonnull @.str.23) #17
  tail call void @exit_nicely(i32 noundef 1) #18
  unreachable

29:                                               ; preds = %.thread
  %.not52 = icmp eq ptr %3, null
  br i1 %.not52, label %42, label %30

30:                                               ; preds = %29
  %31 = getelementptr inbounds nuw i8, ptr %1, i64 %.03963
  %32 = load ptr, ptr %3, align 8
  %33 = tail call i64 @fread(ptr noundef %31, i64 noundef 1, i64 noundef %.04062, ptr noundef %32)
  %.not53 = icmp eq i64 %33, %.04062
  br i1 %.not53, label %42, label %34

34:                                               ; preds = %30
  %35 = load ptr, ptr %3, align 8
  %36 = tail call i32 @feof(ptr noundef %35) #17
  %.not54 = icmp eq i32 %36, 0
  br i1 %.not54, label %37, label %42

37:                                               ; preds = %34
  %38 = load ptr, ptr %3, align 8
  %39 = tail call i32 @feof(ptr noundef %38) #17
  %.not55 = icmp eq i32 %39, 0
  br i1 %.not55, label %41, label %40

40:                                               ; preds = %37
  tail call void (i32, i32, ptr, ...) @pg_log_generic(i32 noundef 4, i32 noundef 0, ptr noundef nonnull @.str.22) #17
  tail call void @exit_nicely(i32 noundef 1) #18
  unreachable

41:                                               ; preds = %37
  tail call void (i32, i32, ptr, ...) @pg_log_generic(i32 noundef 4, i32 noundef 0, ptr noundef nonnull @.str.23) #17
  tail call void @exit_nicely(i32 noundef 1) #18
  unreachable

42:                                               ; preds = %23, %20, %30, %34, %29, %12
  %.03964 = phi i64 [ %.03963, %23 ], [ %.03963, %20 ], [ %.03963, %34 ], [ %.03963, %30 ], [ %.03963, %29 ], [ %., %12 ]
  %.0 = phi i64 [ %22, %23 ], [ %.04062, %20 ], [ %33, %34 ], [ %.04062, %30 ], [ 0, %29 ], [ 0, %12 ]
  %43 = add i64 %.0, %.03964
  %44 = getelementptr inbounds nuw i8, ptr %7, i64 32
  %45 = load i64, ptr %44, align 8
  %46 = add i64 %45, %43
  store i64 %46, ptr %44, align 8
  ret i64 %43
}